target datalayout = "e-m:e-p270:32:32-p271:32:32-p272:64:64-i64:64-i128:128-f80:128-n8:16:32:64-S128"
target triple = "x86_64-unknown-linux-gnu"

%struct.V9fsPath = type { i16, ptr }

; Function Attrs: nounwind sspstrong uwtable
define dso_local void @v9fs_path_free(ptr noundef %path) #0 {
entry:
  %path.addr = alloca ptr, align 8
  store ptr %path, ptr %path.addr, align 8
  %0 = load ptr, ptr %path.addr, align 8
  %data = getelementptr inbounds %struct.V9fsPath, ptr %0, i32 0, i32 1
  %1 = load ptr, ptr %data, align 8
  call void @g_free(ptr noundef %1)
  %2 = load ptr, ptr %path.addr, align 8
  %data1 = getelementptr inbounds %struct.V9fsPath, ptr %2, i32 0, i32 1
  store ptr null, ptr %data1, align 8
  %3 = load ptr, ptr %path.addr, align 8
  %size = getelementptr inbounds %struct.V9fsPath, ptr %3, i32 0, i32 0
  store i16 0, ptr %size, align 8
  ret void
}

; Function Attrs: nounwind sspstrong uwtable
define dso_local void @v9fs_path_copy(ptr noundef %dst, ptr noundef %src) #0 {
entry:
  %dst.addr = alloca ptr, align 8
  %src.addr = alloca ptr, align 8
  store ptr %dst, ptr %dst.addr, align 8
  store ptr %src, ptr %src.addr, align 8
  %0 = load ptr, ptr %dst.addr, align 8
  call void @v9fs_path_free(ptr noundef %0)
  %1 = load ptr, ptr %src.addr, align 8
  %size = getelementptr inbounds %struct.V9fsPath, ptr %1, i32 0, i32 0
  %2 = load i16, ptr %size, align 8
  %3 = load ptr, ptr %dst.addr, align 8
  %size1 = getelementptr inbounds %struct.V9fsPath, ptr %3, i32 0, i32 0
  store i16 %2, ptr %size1, align 8
  %4 = load ptr, ptr %src.addr, align 8
  %data = getelementptr inbounds %struct.V9fsPath, ptr %4, i32 0, i32 1
  %5 = load ptr, ptr %data, align 8
  %6 = load ptr, ptr %src.addr, align 8
  %size2 = getelementptr inbounds %struct.V9fsPath, ptr %6, i32 0, i32 0
  %7 = load i16, ptr %size2, align 8
  %conv = zext i16 %7 to i32
  %call = call ptr @g_memdup(ptr noundef %5, i32 noundef %conv) #14
  %8 = load ptr, ptr %dst.addr, align 8
  %data3 = getelementptr inbounds %struct.V9fsPath, ptr %8, i32 0, i32 1
  store ptr %call, ptr %data3, align 8
  ret void
}