; Function Attrs: nounwind sspstrong uwtable
define dso_local void @v9fs_path_copy(ptr noundef captures(none) initializes((0, 2)) %dst, ptr noundef readonly captures(none) %src) local_unnamed_addr #0 {
entry:
  %data.i = getelementptr inbounds nuw i8, ptr %dst, i64 8
  %0 = load ptr, ptr %data.i, align 8
  tail call void @g_free(ptr noundef %0) #24
  store ptr null, ptr %data.i, align 8
  store i16 0, ptr %dst, align 8
  %1 = load i16, ptr %src, align 8
  store i16 %1, ptr %dst, align 8
  %data = getelementptr inbounds nuw i8, ptr %src, i64 8
  %2 = load ptr, ptr %data, align 8
  %conv = zext i16 %1 to i32
  %call = tail call ptr @g_memdup(ptr noundef %2, i32 noundef %conv) #26
  store ptr %call, ptr %data.i, align 8
  ret void
}